	.file	"main.c"
	.text
.Ltext0:
	.file 0 "/home/lweber/cprog/opengl_examples/triangle" "main.c"
	.globl	vertex_shader_source
	.section	.rodata
	.align 8
.LC0:
	.string	"#version 330 core\nlayout (location = 0) in vec3 aPos;\nout vec4 localColor;\nvoid main()\n{\ngl_Position = vec4(aPos, 1.0);\nlocalColor = vec4(aPos.x,aPos.y,1,1.0);\n}"
	.string	""
	.section	.data.rel.local,"aw"
	.align 8
	.type	vertex_shader_source, @object
	.size	vertex_shader_source, 8
vertex_shader_source:
	.quad	.LC0
	.globl	fragment_shader_source
	.section	.rodata
	.align 8
.LC1:
	.string	"#version 330 core\nout vec4 FragColor;\nin vec4 localColor;\nvoid main()\n{\nFragColor = localColor;\n}"
	.string	""
	.section	.data.rel.local
	.align 8
	.type	fragment_shader_source, @object
	.size	fragment_shader_source, 8
fragment_shader_source:
	.quad	.LC1
	.text
	.globl	window_callback
	.type	window_callback, @function
window_callback:
.LFB0:
	.file 1 "main.c"
	.loc 1 36 57
	.cfi_startproc
	pushq	%rbp
	.cfi_def_cfa_offset 16
	.cfi_offset 6, -16
	movq	%rsp, %rbp
	.cfi_def_cfa_register 6
	subq	$16, %rsp
	movq	%rdi, -8(%rbp)
	movl	%esi, -12(%rbp)
	movl	%edx, -16(%rbp)
	.loc 1 37 2
	movl	-16(%rbp), %edx
	movl	-12(%rbp), %eax
	movl	%edx, %ecx
	movl	%eax, %edx
	movl	$0, %esi
	movl	$0, %edi
	call	glViewport@PLT
	.loc 1 38 1
	nop
	leave
	.cfi_def_cfa 7, 8
	ret
	.cfi_endproc
.LFE0:
	.size	window_callback, .-window_callback
	.section	.rodata
.LC2:
	.string	"Main"
.LC6:
	.string	"main.c"
.LC7:
	.string	"success == 1"
	.text
	.globl	main
	.type	main, @function
main:
.LFB1:
	.loc 1 40 12
	.cfi_startproc
	pushq	%rbp
	.cfi_def_cfa_offset 16
	.cfi_offset 6, -16
	movq	%rsp, %rbp
	.cfi_def_cfa_register 6
	subq	$96, %rsp
	.loc 1 40 12
	movq	%fs:40, %rax
	movq	%rax, -8(%rbp)
	xorl	%eax, %eax
	.loc 1 42 6
	movl	$600, -76(%rbp)
	.loc 1 43 6
	movl	$600, -72(%rbp)
	.loc 1 45 2
	call	glfwInit@PLT
	.loc 1 46 2
	movl	$3, %esi
	movl	$139266, %edi
	call	glfwWindowHint@PLT
	.loc 1 47 2
	movl	$3, %esi
	movl	$139267, %edi
	call	glfwWindowHint@PLT
	.loc 1 48 2
	movl	$204801, %esi
	movl	$139272, %edi
	call	glfwWindowHint@PLT
	.loc 1 50 24
	movl	-72(%rbp), %esi
	movl	-76(%rbp), %eax
	movl	$0, %r8d
	movl	$0, %ecx
	leaq	.LC2(%rip), %rdx
	movl	%eax, %edi
	call	glfwCreateWindow@PLT
	movq	%rax, -56(%rbp)
	.loc 1 51 2
	movq	-56(%rbp), %rax
	movq	%rax, %rdi
	call	glfwMakeContextCurrent@PLT
	.loc 1 53 2
	movq	-56(%rbp), %rax
	leaq	window_callback(%rip), %rdx
	movq	%rdx, %rsi
	movq	%rax, %rdi
	call	glfwSetFramebufferSizeCallback@PLT
	.loc 1 54 2
	call	glfwPollEvents@PLT
	.loc 1 55 2
	movl	-72(%rbp), %edx
	movl	-76(%rbp), %eax
	movl	%edx, %ecx
	movl	%eax, %edx
	movl	$0, %esi
	movl	$0, %edi
	call	glViewport@PLT
	.loc 1 58 19
	movb	$1, glewExperimental(%rip)
	.loc 1 59 2
	call	glewInit@PLT
	.loc 1 61 8
	movss	.LC3(%rip), %xmm0
	movss	%xmm0, -48(%rbp)
	movss	.LC3(%rip), %xmm0
	movss	%xmm0, -44(%rbp)
	pxor	%xmm0, %xmm0
	movss	%xmm0, -40(%rbp)
	pxor	%xmm0, %xmm0
	movss	%xmm0, -36(%rbp)
	movss	.LC5(%rip), %xmm0
	movss	%xmm0, -32(%rbp)
	pxor	%xmm0, %xmm0
	movss	%xmm0, -28(%rbp)
	movss	.LC5(%rip), %xmm0
	movss	%xmm0, -24(%rbp)
	movss	.LC3(%rip), %xmm0
	movss	%xmm0, -20(%rbp)
	pxor	%xmm0, %xmm0
	movss	%xmm0, -16(%rbp)
	.loc 1 65 2
	movq	__glewGenVertexArrays(%rip), %rdx
	leaq	-88(%rbp), %rax
	movq	%rax, %rsi
	movl	$1, %edi
	call	*%rdx
.LVL0:
	.loc 1 66 2
	movq	__glewBindVertexArray(%rip), %rdx
	movl	-88(%rbp), %eax
	movl	%eax, %edi
	call	*%rdx
.LVL1:
	.loc 1 69 2
	movq	__glewGenBuffers(%rip), %rdx
	leaq	-84(%rbp), %rax
	movq	%rax, %rsi
	movl	$1, %edi
	call	*%rdx
.LVL2:
	.loc 1 70 2
	movq	__glewBindBuffer(%rip), %rdx
	movl	-84(%rbp), %eax
	movl	%eax, %esi
	movl	$34962, %edi
	call	*%rdx
.LVL3:
	.loc 1 71 2
	movq	__glewBufferData(%rip), %r8
	leaq	-48(%rbp), %rax
	movl	$35044, %ecx
	movq	%rax, %rdx
	movl	$36, %esi
	movl	$34962, %edi
	call	*%r8
.LVL4:
	.loc 1 75 31
	movq	__glewCreateShader(%rip), %rax
	movl	$35633, %edi
	call	*%rax
.LVL5:
	movl	%eax, -68(%rbp)
	.loc 1 76 2
	movq	__glewShaderSource(%rip), %r8
	movl	-68(%rbp), %eax
	movl	$0, %ecx
	leaq	vertex_shader_source(%rip), %rdx
	movl	$1, %esi
	movl	%eax, %edi
	call	*%r8
.LVL6:
	.loc 1 77 2
	movq	__glewCompileShader(%rip), %rdx
	movl	-68(%rbp), %eax
	movl	%eax, %edi
	call	*%rdx
.LVL7:
	.loc 1 80 2
	movq	__glewGetShaderiv(%rip), %rcx
	leaq	-80(%rbp), %rdx
	movl	-68(%rbp), %eax
	movl	$35713, %esi
	movl	%eax, %edi
	call	*%rcx
.LVL8:
	.loc 1 81 2
	movl	-80(%rbp), %eax
	cmpl	$1, %eax
	je	.L3
	.loc 1 81 2 is_stmt 0 discriminator 1
	leaq	__PRETTY_FUNCTION__.0(%rip), %rax
	movq	%rax, %rcx
	movl	$81, %edx
	leaq	.LC6(%rip), %rax
	movq	%rax, %rsi
	leaq	.LC7(%rip), %rax
	movq	%rax, %rdi
	call	__assert_fail@PLT
.L3:
	.loc 1 83 33 is_stmt 1
	movq	__glewCreateShader(%rip), %rax
	movl	$35632, %edi
	call	*%rax
.LVL9:
	movl	%eax, -64(%rbp)
	.loc 1 84 2
	movq	__glewShaderSource(%rip), %r8
	movl	-64(%rbp), %eax
	movl	$0, %ecx
	leaq	fragment_shader_source(%rip), %rdx
	movl	$1, %esi
	movl	%eax, %edi
	call	*%r8
.LVL10:
	.loc 1 85 2
	movq	__glewCompileShader(%rip), %rdx
	movl	-64(%rbp), %eax
	movl	%eax, %edi
	call	*%rdx
.LVL11:
	.loc 1 87 2
	movq	__glewGetShaderiv(%rip), %rcx
	leaq	-80(%rbp), %rdx
	movl	-64(%rbp), %eax
	movl	$35713, %esi
	movl	%eax, %edi
	call	*%rcx
.LVL12:
	.loc 1 88 2
	movl	-80(%rbp), %eax
	cmpl	$1, %eax
	je	.L4
	.loc 1 88 2 is_stmt 0 discriminator 1
	leaq	__PRETTY_FUNCTION__.0(%rip), %rax
	movq	%rax, %rcx
	movl	$88, %edx
	leaq	.LC6(%rip), %rax
	movq	%rax, %rsi
	leaq	.LC7(%rip), %rax
	movq	%rax, %rdi
	call	__assert_fail@PLT
.L4:
	.loc 1 90 16 is_stmt 1
	movq	__glewCreateProgram(%rip), %rax
	call	*%rax
.LVL13:
	.loc 1 90 6 discriminator 1
	movl	%eax, -60(%rbp)
	.loc 1 91 2
	movq	__glewAttachShader(%rip), %rcx
	movl	-60(%rbp), %eax
	movl	-68(%rbp), %edx
	movl	%edx, %esi
	movl	%eax, %edi
	call	*%rcx
.LVL14:
	.loc 1 92 2
	movq	__glewAttachShader(%rip), %rcx
	movl	-60(%rbp), %eax
	movl	-64(%rbp), %edx
	movl	%edx, %esi
	movl	%eax, %edi
	call	*%rcx
.LVL15:
	.loc 1 93 2
	movq	__glewLinkProgram(%rip), %rdx
	movl	-60(%rbp), %eax
	movl	%eax, %edi
	call	*%rdx
.LVL16:
	.loc 1 95 2
	movq	__glewGetProgramiv(%rip), %rcx
	movl	-60(%rbp), %eax
	leaq	-80(%rbp), %rdx
	movl	$35714, %esi
	movl	%eax, %edi
	call	*%rcx
.LVL17:
	.loc 1 96 2
	movl	-80(%rbp), %eax
	cmpl	$1, %eax
	je	.L5
	.loc 1 96 2 is_stmt 0 discriminator 1
	leaq	__PRETTY_FUNCTION__.0(%rip), %rax
	movq	%rax, %rcx
	movl	$96, %edx
	leaq	.LC6(%rip), %rax
	movq	%rax, %rsi
	leaq	.LC7(%rip), %rax
	movq	%rax, %rdi
	call	__assert_fail@PLT
.L5:
	.loc 1 98 2 is_stmt 1
	movq	__glewDeleteShader(%rip), %rdx
	movl	-68(%rbp), %eax
	movl	%eax, %edi
	call	*%rdx
.LVL18:
	.loc 1 99 2
	movq	__glewDeleteShader(%rip), %rdx
	movl	-64(%rbp), %eax
	movl	%eax, %edi
	call	*%rdx
.LVL19:
	.loc 1 101 2
	movq	__glewVertexAttribPointer(%rip), %rax
	movl	$0, %r9d
	movl	$12, %r8d
	movl	$0, %ecx
	movl	$5126, %edx
	movl	$3, %esi
	movl	$0, %edi
	call	*%rax
.LVL20:
	.loc 1 102 2
	movq	__glewEnableVertexAttribArray(%rip), %rax
	movl	$0, %edi
	call	*%rax
.LVL21:
	.loc 1 104 8
	jmp	.L6
.L7:
	.loc 1 106 3
	movss	.LC8(%rip), %xmm3
	movss	.LC9(%rip), %xmm2
	movss	.LC8(%rip), %xmm1
	movl	.LC10(%rip), %eax
	movd	%eax, %xmm0
	call	glClearColor@PLT
	.loc 1 107 3
	movl	$16384, %edi
	call	glClear@PLT
	.loc 1 109 3
	movq	__glewUseProgram(%rip), %rdx
	movl	-60(%rbp), %eax
	movl	%eax, %edi
	call	*%rdx
.LVL22:
	.loc 1 110 3
	movq	__glewBindVertexArray(%rip), %rdx
	movl	-88(%rbp), %eax
	movl	%eax, %edi
	call	*%rdx
.LVL23:
	.loc 1 111 3
	movl	$3, %edx
	movl	$0, %esi
	movl	$4, %edi
	call	glDrawArrays@PLT
	.loc 1 113 3
	movq	-56(%rbp), %rax
	movq	%rax, %rdi
	call	glfwSwapBuffers@PLT
.L6:
	.loc 1 104 10
	movq	-56(%rbp), %rax
	movq	%rax, %rdi
	call	glfwWindowShouldClose@PLT
	.loc 1 104 9 discriminator 1
	testl	%eax, %eax
	je	.L7
	.loc 1 116 2
	movq	-56(%rbp), %rax
	movq	%rax, %rdi
	call	glfwDestroyWindow@PLT
	.loc 1 117 2
	call	glfwTerminate@PLT
	.loc 1 118 9
	movl	$1, %eax
	.loc 1 120 1
	movq	-8(%rbp), %rdx
	subq	%fs:40, %rdx
	je	.L9
	call	__stack_chk_fail@PLT
.L9:
	leave
	.cfi_def_cfa 7, 8
	ret
	.cfi_endproc
.LFE1:
	.size	main, .-main
	.section	.rodata
	.type	__PRETTY_FUNCTION__.0, @object
	.size	__PRETTY_FUNCTION__.0, 5
__PRETTY_FUNCTION__.0:
	.string	"main"
	.align 4
.LC3:
	.long	-1090519040
	.align 4
.LC5:
	.long	1056964608
	.align 4
.LC8:
	.long	1045220557
	.align 4
.LC9:
	.long	1050253722
	.align 4
.LC10:
	.long	1036831949
	.text
.Letext0:
	.file 2 "/usr/lib/gcc/x86_64-pc-linux-gnu/14.1.1/include/stddef.h"
	.file 3 "/usr/include/GL/glew.h"
	.file 4 "/usr/local/include/GLFW/glfw3.h"
	.file 5 "/usr/include/assert.h"
	.section	.note.GNU-stack,"",@progbits
